
a.out：     文件格式 elf32-littlearm


Disassembly of section .init:

000102d8 <_init>:
   102d8:	e92d4008 	push	{r3, lr}
   102dc:	eb00001d 	bl	10358 <call_weak_fn>
   102e0:	e8bd8008 	pop	{r3, pc}

Disassembly of section .plt:

000102e4 <.plt>:
   102e4:	e52de004 	push	{lr}		; (str lr, [sp, #-4]!)
   102e8:	e59fe004 	ldr	lr, [pc, #4]	; 102f4 <.plt+0x10>
   102ec:	e08fe00e 	add	lr, pc, lr
   102f0:	e5bef008 	ldr	pc, [lr, #8]!
   102f4:	00010d0c 	andeq	r0, r1, ip, lsl #26

000102f8 <__libc_start_main@plt>:
   102f8:	e28fc600 	add	ip, pc, #0, 12
   102fc:	e28cca10 	add	ip, ip, #16, 20	; 0x10000
   10300:	e5bcfd0c 	ldr	pc, [ip, #3340]!	; 0xd0c

00010304 <printf@plt>:
   10304:	e28fc600 	add	ip, pc, #0, 12
   10308:	e28cca10 	add	ip, ip, #16, 20	; 0x10000
   1030c:	e5bcfd04 	ldr	pc, [ip, #3332]!	; 0xd04

00010310 <__gmon_start__@plt>:
   10310:	e28fc600 	add	ip, pc, #0, 12
   10314:	e28cca10 	add	ip, ip, #16, 20	; 0x10000
   10318:	e5bcfcfc 	ldr	pc, [ip, #3324]!	; 0xcfc

0001031c <abort@plt>:
   1031c:	e28fc600 	add	ip, pc, #0, 12
   10320:	e28cca10 	add	ip, ip, #16, 20	; 0x10000
   10324:	e5bcfcf4 	ldr	pc, [ip, #3316]!	; 0xcf4

Disassembly of section .text:

00010328 <_start>:
   10328:	e3a0b000 	mov	fp, #0
   1032c:	e3a0e000 	mov	lr, #0
   10330:	e49d1004 	pop	{r1}		; (ldr r1, [sp], #4)
   10334:	e1a0200d 	mov	r2, sp
   10338:	e52d2004 	push	{r2}		; (str r2, [sp, #-4]!)
   1033c:	e52d0004 	push	{r0}		; (str r0, [sp, #-4]!)
   10340:	e3a03000 	mov	r3, #0
   10344:	e52d3004 	push	{r3}		; (str r3, [sp, #-4]!)
   10348:	e59f0004 	ldr	r0, [pc, #4]	; 10354 <_start+0x2c>
   1034c:	ebffffe9 	bl	102f8 <__libc_start_main@plt>
   10350:	ebfffff1 	bl	1031c <abort@plt>
   10354:	00010474 	andeq	r0, r1, r4, ror r4

00010358 <call_weak_fn>:
   10358:	e59f3014 	ldr	r3, [pc, #20]	; 10374 <call_weak_fn+0x1c>
   1035c:	e59f2014 	ldr	r2, [pc, #20]	; 10378 <call_weak_fn+0x20>
   10360:	e08f3003 	add	r3, pc, r3
   10364:	e7932002 	ldr	r2, [r3, r2]
   10368:	e3520000 	cmp	r2, #0
   1036c:	012fff1e 	bxeq	lr
   10370:	eaffffe6 	b	10310 <__gmon_start__@plt>
   10374:	00010c98 	muleq	r1, r8, ip
   10378:	0000001c 	andeq	r0, r0, ip, lsl r0

0001037c <deregister_tm_clones>:
   1037c:	e59f0018 	ldr	r0, [pc, #24]	; 1039c <deregister_tm_clones+0x20>
   10380:	e59f3018 	ldr	r3, [pc, #24]	; 103a0 <deregister_tm_clones+0x24>
   10384:	e1530000 	cmp	r3, r0
   10388:	012fff1e 	bxeq	lr
   1038c:	e59f3010 	ldr	r3, [pc, #16]	; 103a4 <deregister_tm_clones+0x28>
   10390:	e3530000 	cmp	r3, #0
   10394:	012fff1e 	bxeq	lr
   10398:	e12fff13 	bx	r3
   1039c:	00021028 	andeq	r1, r2, r8, lsr #32
   103a0:	00021028 	andeq	r1, r2, r8, lsr #32
   103a4:	00000000 	andeq	r0, r0, r0

000103a8 <register_tm_clones>:
   103a8:	e59f0024 	ldr	r0, [pc, #36]	; 103d4 <register_tm_clones+0x2c>
   103ac:	e59f3024 	ldr	r3, [pc, #36]	; 103d8 <register_tm_clones+0x30>
   103b0:	e0433000 	sub	r3, r3, r0
   103b4:	e1a01fa3 	lsr	r1, r3, #31
   103b8:	e0811143 	add	r1, r1, r3, asr #2
   103bc:	e1b010c1 	asrs	r1, r1, #1
   103c0:	012fff1e 	bxeq	lr
   103c4:	e59f3010 	ldr	r3, [pc, #16]	; 103dc <register_tm_clones+0x34>
   103c8:	e3530000 	cmp	r3, #0
   103cc:	012fff1e 	bxeq	lr
   103d0:	e12fff13 	bx	r3
   103d4:	00021028 	andeq	r1, r2, r8, lsr #32
   103d8:	00021028 	andeq	r1, r2, r8, lsr #32
   103dc:	00000000 	andeq	r0, r0, r0

000103e0 <__do_global_dtors_aux>:
   103e0:	e92d4010 	push	{r4, lr}
   103e4:	e59f4018 	ldr	r4, [pc, #24]	; 10404 <__do_global_dtors_aux+0x24>
   103e8:	e5d43000 	ldrb	r3, [r4]
   103ec:	e3530000 	cmp	r3, #0
   103f0:	18bd8010 	popne	{r4, pc}
   103f4:	ebffffe0 	bl	1037c <deregister_tm_clones>
   103f8:	e3a03001 	mov	r3, #1
   103fc:	e5c43000 	strb	r3, [r4]
   10400:	e8bd8010 	pop	{r4, pc}
   10404:	00021028 	andeq	r1, r2, r8, lsr #32

00010408 <frame_dummy>:
   10408:	eaffffe6 	b	103a8 <register_tm_clones>

0001040c <f>:
   1040c:	e52db004 	push	{fp}		; (str fp, [sp, #-4]!)
   10410:	e28db000 	add	fp, sp, #0
   10414:	e24dd01c 	sub	sp, sp, #28
   10418:	e50b0010 	str	r0, [fp, #-16]
   1041c:	e50b1014 	str	r1, [fp, #-20]	; 0xffffffec
   10420:	e50b2018 	str	r2, [fp, #-24]	; 0xffffffe8
   10424:	e50b301c 	str	r3, [fp, #-28]	; 0xffffffe4
   10428:	e3a03000 	mov	r3, #0
   1042c:	e50b3008 	str	r3, [fp, #-8]
   10430:	e51b2010 	ldr	r2, [fp, #-16]
   10434:	e51b3014 	ldr	r3, [fp, #-20]	; 0xffffffec
   10438:	e0822003 	add	r2, r2, r3
   1043c:	e51b3018 	ldr	r3, [fp, #-24]	; 0xffffffe8
   10440:	e0822003 	add	r2, r2, r3
   10444:	e51b301c 	ldr	r3, [fp, #-28]	; 0xffffffe4
   10448:	e0822003 	add	r2, r2, r3
   1044c:	e59b3004 	ldr	r3, [fp, #4]
   10450:	e0823003 	add	r3, r2, r3
   10454:	e59b2008 	ldr	r2, [fp, #8]
   10458:	e0823003 	add	r3, r2, r3
   1045c:	e50b3008 	str	r3, [fp, #-8]
   10460:	e51b3008 	ldr	r3, [fp, #-8]
   10464:	e1a00003 	mov	r0, r3
   10468:	e28bd000 	add	sp, fp, #0
   1046c:	e49db004 	pop	{fp}		; (ldr fp, [sp], #4)
   10470:	e12fff1e 	bx	lr

00010474 <main>:
   10474:	e92d4800 	push	{fp, lr}
   10478:	e28db004 	add	fp, sp, #4
   1047c:	e24dd010 	sub	sp, sp, #16
   10480:	e3a03000 	mov	r3, #0
   10484:	e50b3008 	str	r3, [fp, #-8]
   10488:	e3a03006 	mov	r3, #6
   1048c:	e58d3004 	str	r3, [sp, #4]
   10490:	e3a03005 	mov	r3, #5
   10494:	e58d3000 	str	r3, [sp]
   10498:	e3a03004 	mov	r3, #4
   1049c:	e3a02003 	mov	r2, #3
   104a0:	e3a01002 	mov	r1, #2
   104a4:	e3a00001 	mov	r0, #1
   104a8:	ebffffd7 	bl	1040c <f>
   104ac:	e50b0008 	str	r0, [fp, #-8]
   104b0:	e51b1008 	ldr	r1, [fp, #-8]
   104b4:	e59f0010 	ldr	r0, [pc, #16]	; 104cc <main+0x58>
   104b8:	ebffff91 	bl	10304 <printf@plt>
   104bc:	e3a03000 	mov	r3, #0
   104c0:	e1a00003 	mov	r0, r3
   104c4:	e24bd004 	sub	sp, fp, #4
   104c8:	e8bd8800 	pop	{fp, pc}
   104cc:	0001056c 	andeq	r0, r1, ip, ror #10

Disassembly of section .fini:

000104d0 <_fini>:
   104d0:	e92d4008 	push	{r3, lr}
   104d4:	e8bd8008 	pop	{r3, pc}
