
a.out：     文件格式 elf32-littlearm


Disassembly of section .init:

00010368 <_init>:
   10368:	e92d4008 	push	{r3, lr}
   1036c:	eb000020 	bl	103f4 <call_weak_fn>
   10370:	e8bd8008 	pop	{r3, pc}

Disassembly of section .plt:

00010374 <.plt>:
   10374:	e52de004 	push	{lr}		; (str lr, [sp, #-4]!)
   10378:	e59fe004 	ldr	lr, [pc, #4]	; 10384 <.plt+0x10>
   1037c:	e08fe00e 	add	lr, pc, lr
   10380:	e5bef008 	ldr	pc, [lr, #8]!
   10384:	00010c7c 	andeq	r0, r1, ip, ror ip

00010388 <__libc_start_main@plt>:
   10388:	e28fc600 	add	ip, pc, #0, 12
   1038c:	e28cca10 	add	ip, ip, #16, 20	; 0x10000
   10390:	e5bcfc7c 	ldr	pc, [ip, #3196]!	; 0xc7c

00010394 <printf@plt>:
   10394:	e28fc600 	add	ip, pc, #0, 12
   10398:	e28cca10 	add	ip, ip, #16, 20	; 0x10000
   1039c:	e5bcfc74 	ldr	pc, [ip, #3188]!	; 0xc74

000103a0 <__stack_chk_fail@plt>:
   103a0:	e28fc600 	add	ip, pc, #0, 12
   103a4:	e28cca10 	add	ip, ip, #16, 20	; 0x10000
   103a8:	e5bcfc6c 	ldr	pc, [ip, #3180]!	; 0xc6c

000103ac <__gmon_start__@plt>:
   103ac:	e28fc600 	add	ip, pc, #0, 12
   103b0:	e28cca10 	add	ip, ip, #16, 20	; 0x10000
   103b4:	e5bcfc64 	ldr	pc, [ip, #3172]!	; 0xc64

000103b8 <abort@plt>:
   103b8:	e28fc600 	add	ip, pc, #0, 12
   103bc:	e28cca10 	add	ip, ip, #16, 20	; 0x10000
   103c0:	e5bcfc5c 	ldr	pc, [ip, #3164]!	; 0xc5c

Disassembly of section .text:

000103c4 <_start>:
   103c4:	e3a0b000 	mov	fp, #0
   103c8:	e3a0e000 	mov	lr, #0
   103cc:	e49d1004 	pop	{r1}		; (ldr r1, [sp], #4)
   103d0:	e1a0200d 	mov	r2, sp
   103d4:	e52d2004 	push	{r2}		; (str r2, [sp, #-4]!)
   103d8:	e52d0004 	push	{r0}		; (str r0, [sp, #-4]!)
   103dc:	e3a03000 	mov	r3, #0
   103e0:	e52d3004 	push	{r3}		; (str r3, [sp, #-4]!)
   103e4:	e59f0004 	ldr	r0, [pc, #4]	; 103f0 <_start+0x2c>
   103e8:	ebffffe6 	bl	10388 <__libc_start_main@plt>
   103ec:	ebfffff1 	bl	103b8 <abort@plt>
   103f0:	000104a8 	andeq	r0, r1, r8, lsr #9

000103f4 <call_weak_fn>:
   103f4:	e59f3014 	ldr	r3, [pc, #20]	; 10410 <call_weak_fn+0x1c>
   103f8:	e59f2014 	ldr	r2, [pc, #20]	; 10414 <call_weak_fn+0x20>
   103fc:	e08f3003 	add	r3, pc, r3
   10400:	e7932002 	ldr	r2, [r3, r2]
   10404:	e3520000 	cmp	r2, #0
   10408:	012fff1e 	bxeq	lr
   1040c:	eaffffe6 	b	103ac <__gmon_start__@plt>
   10410:	00010bfc 	strdeq	r0, [r1], -ip
   10414:	00000020 	andeq	r0, r0, r0, lsr #32

00010418 <deregister_tm_clones>:
   10418:	e59f0018 	ldr	r0, [pc, #24]	; 10438 <deregister_tm_clones+0x20>
   1041c:	e59f3018 	ldr	r3, [pc, #24]	; 1043c <deregister_tm_clones+0x24>
   10420:	e1530000 	cmp	r3, r0
   10424:	012fff1e 	bxeq	lr
   10428:	e59f3010 	ldr	r3, [pc, #16]	; 10440 <deregister_tm_clones+0x28>
   1042c:	e3530000 	cmp	r3, #0
   10430:	012fff1e 	bxeq	lr
   10434:	e12fff13 	bx	r3
   10438:	0002102c 	andeq	r1, r2, ip, lsr #32
   1043c:	0002102c 	andeq	r1, r2, ip, lsr #32
   10440:	00000000 	andeq	r0, r0, r0

00010444 <register_tm_clones>:
   10444:	e59f0024 	ldr	r0, [pc, #36]	; 10470 <register_tm_clones+0x2c>
   10448:	e59f3024 	ldr	r3, [pc, #36]	; 10474 <register_tm_clones+0x30>
   1044c:	e0433000 	sub	r3, r3, r0
   10450:	e1a01fa3 	lsr	r1, r3, #31
   10454:	e0811143 	add	r1, r1, r3, asr #2
   10458:	e1b010c1 	asrs	r1, r1, #1
   1045c:	012fff1e 	bxeq	lr
   10460:	e59f3010 	ldr	r3, [pc, #16]	; 10478 <register_tm_clones+0x34>
   10464:	e3530000 	cmp	r3, #0
   10468:	012fff1e 	bxeq	lr
   1046c:	e12fff13 	bx	r3
   10470:	0002102c 	andeq	r1, r2, ip, lsr #32
   10474:	0002102c 	andeq	r1, r2, ip, lsr #32
   10478:	00000000 	andeq	r0, r0, r0

0001047c <__do_global_dtors_aux>:
   1047c:	e92d4010 	push	{r4, lr}
   10480:	e59f4018 	ldr	r4, [pc, #24]	; 104a0 <__do_global_dtors_aux+0x24>
   10484:	e5d43000 	ldrb	r3, [r4]
   10488:	e3530000 	cmp	r3, #0
   1048c:	18bd8010 	popne	{r4, pc}
   10490:	ebffffe0 	bl	10418 <deregister_tm_clones>
   10494:	e3a03001 	mov	r3, #1
   10498:	e5c43000 	strb	r3, [r4]
   1049c:	e8bd8010 	pop	{r4, pc}
   104a0:	0002102c 	andeq	r1, r2, ip, lsr #32

000104a4 <frame_dummy>:
   104a4:	eaffffe6 	b	10444 <register_tm_clones>

000104a8 <main>:
   104a8:	e92d4800 	push	{fp, lr}
   104ac:	e28db004 	add	fp, sp, #4
   104b0:	e24dd018 	sub	sp, sp, #24
   104b4:	e59f3074 	ldr	r3, [pc, #116]	; 10530 <main+0x88>
   104b8:	e5933000 	ldr	r3, [r3]
   104bc:	e50b3008 	str	r3, [fp, #-8]
   104c0:	e3a03000 	mov	r3, #0
   104c4:	e59f3068 	ldr	r3, [pc, #104]	; 10534 <main+0x8c>
   104c8:	e24bc018 	sub	ip, fp, #24
   104cc:	e893000f 	ldm	r3, {r0, r1, r2, r3}
   104d0:	e88c000f 	stm	ip, {r0, r1, r2, r3}
   104d4:	e3a03007 	mov	r3, #7
   104d8:	e58b3004 	str	r3, [fp, #4]
   104dc:	e3a03008 	mov	r3, #8
   104e0:	e58b3008 	str	r3, [fp, #8]
   104e4:	e59b3004 	ldr	r3, [fp, #4]
   104e8:	e1a01003 	mov	r1, r3
   104ec:	e59f0044 	ldr	r0, [pc, #68]	; 10538 <main+0x90>
   104f0:	ebffffa7 	bl	10394 <printf@plt>
   104f4:	e59b3008 	ldr	r3, [fp, #8]
   104f8:	e1a01003 	mov	r1, r3
   104fc:	e59f0038 	ldr	r0, [pc, #56]	; 1053c <main+0x94>
   10500:	ebffffa3 	bl	10394 <printf@plt>
   10504:	e3a03000 	mov	r3, #0
   10508:	e59f2020 	ldr	r2, [pc, #32]	; 10530 <main+0x88>
   1050c:	e5921000 	ldr	r1, [r2]
   10510:	e51b2008 	ldr	r2, [fp, #-8]
   10514:	e0321001 	eors	r1, r2, r1
   10518:	e3a02000 	mov	r2, #0
   1051c:	0a000000 	beq	10524 <main+0x7c>
   10520:	ebffff9e 	bl	103a0 <__stack_chk_fail@plt>
   10524:	e1a00003 	mov	r0, r3
   10528:	e24bd004 	sub	sp, fp, #4
   1052c:	e8bd8800 	pop	{fp, pc}
   10530:	00020f08 	andeq	r0, r2, r8, lsl #30
   10534:	000105f4 	strdeq	r0, [r1], -r4
   10538:	000105dc 	ldrdeq	r0, [r1], -ip
   1053c:	000105e8 	andeq	r0, r1, r8, ror #11

Disassembly of section .fini:

00010540 <_fini>:
   10540:	e92d4008 	push	{r3, lr}
   10544:	e8bd8008 	pop	{r3, pc}
